; Function Attrs: mustprogress uwtable
define internal fastcc void @_ZN3vcg3tri2io18QtUtilityFunctionsL16fileNameFromPathERK7QString(ptr dead_on_unwind noalias nocapture writable writeonly align 8 %0, ptr nocapture noundef nonnull readonly align 8 dereferenceable(8) %1) unnamed_addr #9 personality ptr @__gxx_personality_v0 {
  %3 = alloca %class.QStringList, align 8
  store ptr @_ZN9QListData11shared_nullE, ptr %3, align 8
  invoke fastcc void @_ZN3vcg3tri2io18QtUtilityFunctionsL13splitFilePathERK7QStringR11QStringList(ptr noundef nonnull align 8 dereferenceable(8) %1, ptr noundef nonnull align 8 dereferenceable(8) %3)
          to label %4 unwind label %45

4:                                                ; preds = %2
  %.val = load ptr, ptr %3, align 8
  tail call void @llvm.experimental.noalias.scope.decl(metadata !426)
  %5 = getelementptr inbounds i8, ptr %.val, i64 12
  %6 = load i32, ptr %5, align 4, !noalias !426
  %7 = getelementptr inbounds i8, ptr %.val, i64 8
  %8 = load i32, ptr %7, align 8, !noalias !426
  %9 = sub nsw i32 %6, %8
  %10 = icmp sgt i32 %9, 0
  br i1 %10, label %11, label %23

11:                                               ; preds = %4
  %12 = getelementptr inbounds i8, ptr %.val, i64 16
  %13 = sext i32 %8 to i64
  %14 = getelementptr inbounds ptr, ptr %12, i64 %13
  %15 = zext nneg i32 %9 to i64
  %16 = getelementptr ptr, ptr %14, i64 %15
  %17 = getelementptr i8, ptr %16, i64 -8
  %18 = load ptr, ptr %17, align 8, !noalias !426
  store ptr %18, ptr %0, align 8, !alias.scope !426
  %19 = load atomic i32, ptr %18 monotonic, align 4, !noalias !426
  %20 = add i32 %19, -1
  %or.cond.not.i.i.i = icmp ult i32 %20, -2
  br i1 %or.cond.not.i.i.i, label %21, label %_ZN3vcg3tri2io18QtUtilityFunctionsL23fileNameFromTrimmedPathERK11QStringList.exit

21:                                               ; preds = %11
  %22 = atomicrmw add ptr %18, i32 1 seq_cst, align 4, !noalias !426
  %.pre = load ptr, ptr %3, align 8
  br label %_ZN3vcg3tri2io18QtUtilityFunctionsL23fileNameFromTrimmedPathERK11QStringList.exit

23:                                               ; preds = %4
  store ptr @_ZN10QArrayData11shared_nullE, ptr %0, align 8, !alias.scope !426
  br label %_ZN3vcg3tri2io18QtUtilityFunctionsL23fileNameFromTrimmedPathERK11QStringList.exit

_ZN3vcg3tri2io18QtUtilityFunctionsL23fileNameFromTrimmedPathERK11QStringList.exit: ; preds = %23, %21, %11
  %24 = phi ptr [ %.val, %23 ], [ %.pre, %21 ], [ %.val, %11 ]
  %25 = load atomic i32, ptr %24 monotonic, align 4
  switch i32 %25, label %_ZN9QtPrivate8RefCount5derefEv.exit.i.i [
    i32 0, label %_ZN9QtPrivate8RefCount5derefEv.exit.thread2.i.i
    i32 -1, label %_ZN11QStringListD2Ev.exit
  ]

_ZN9QtPrivate8RefCount5derefEv.exit.i.i:          ; preds = %_ZN3vcg3tri2io18QtUtilityFunctionsL23fileNameFromTrimmedPathERK11QStringList.exit
  %26 = atomicrmw sub ptr %24, i32 1 seq_cst, align 4
  %.not.i.i = icmp eq i32 %26, 1
  br i1 %.not.i.i, label %_ZN9QtPrivate8RefCount5derefEv.exit._ZN9QtPrivate8RefCount5derefEv.exit.thread2_crit_edge.i.i, label %_ZN11QStringListD2Ev.exit

_ZN9QtPrivate8RefCount5derefEv.exit._ZN9QtPrivate8RefCount5derefEv.exit.thread2_crit_edge.i.i: ; preds = %_ZN9QtPrivate8RefCount5derefEv.exit.i.i
  %.pre.i.i = load ptr, ptr %3, align 8
  br label %_ZN9QtPrivate8RefCount5derefEv.exit.thread2.i.i

_ZN9QtPrivate8RefCount5derefEv.exit.thread2.i.i:  ; preds = %_ZN9QtPrivate8RefCount5derefEv.exit._ZN9QtPrivate8RefCount5derefEv.exit.thread2_crit_edge.i.i, %_ZN3vcg3tri2io18QtUtilityFunctionsL23fileNameFromTrimmedPathERK11QStringList.exit
  %27 = phi ptr [ %.pre.i.i, %_ZN9QtPrivate8RefCount5derefEv.exit._ZN9QtPrivate8RefCount5derefEv.exit.thread2_crit_edge.i.i ], [ %24, %_ZN3vcg3tri2io18QtUtilityFunctionsL23fileNameFromTrimmedPathERK11QStringList.exit ]
  %28 = getelementptr inbounds i8, ptr %27, i64 16
  %29 = getelementptr inbounds i8, ptr %27, i64 8
  %30 = load i32, ptr %29, align 8
  %31 = sext i32 %30 to i64
  %32 = getelementptr inbounds ptr, ptr %28, i64 %31
  %33 = getelementptr inbounds i8, ptr %27, i64 12
  %34 = load i32, ptr %33, align 4
  %.not4.i.i.i.i = icmp eq i32 %34, %30
  br i1 %.not4.i.i.i.i, label %_ZN5QListI7QStringE13node_destructEPNS1_4NodeES3_.exit.i.i.i, label %.lr.ph.i.preheader.i.i.i

.lr.ph.i.preheader.i.i.i:                         ; preds = %_ZN9QtPrivate8RefCount5derefEv.exit.thread2.i.i
  %35 = sext i32 %34 to i64
  %36 = getelementptr inbounds ptr, ptr %28, i64 %35
  br label %.lr.ph.i.i.i.i

.lr.ph.i.i.i.i:                                   ; preds = %_ZN7QStringD2Ev.exit.i.i.i.i, %.lr.ph.i.preheader.i.i.i
  %.05.i.i.i.i = phi ptr [ %37, %_ZN7QStringD2Ev.exit.i.i.i.i ], [ %36, %.lr.ph.i.preheader.i.i.i ]
  %37 = getelementptr inbounds i8, ptr %.05.i.i.i.i, i64 -8
  %38 = load ptr, ptr %37, align 8
  %39 = load atomic i32, ptr %38 monotonic, align 4
  switch i32 %39, label %_ZN9QtPrivate8RefCount5derefEv.exit.i.i.i.i.i [
    i32 0, label %_ZN9QtPrivate8RefCount5derefEv.exit.thread2.i.i.i.i.i
    i32 -1, label %_ZN7QStringD2Ev.exit.i.i.i.i
  ]

_ZN9QtPrivate8RefCount5derefEv.exit.i.i.i.i.i:    ; preds = %.lr.ph.i.i.i.i
  %40 = atomicrmw sub ptr %38, i32 1 seq_cst, align 4
  %.not.i.i.i.i.i = icmp eq i32 %40, 1
  br i1 %.not.i.i.i.i.i, label %_ZN9QtPrivate8RefCount5derefEv.exit._ZN9QtPrivate8RefCount5derefEv.exit.thread2_crit_edge.i.i.i.i.i, label %_ZN7QStringD2Ev.exit.i.i.i.i

_ZN9QtPrivate8RefCount5derefEv.exit._ZN9QtPrivate8RefCount5derefEv.exit.thread2_crit_edge.i.i.i.i.i: ; preds = %_ZN9QtPrivate8RefCount5derefEv.exit.i.i.i.i.i
  %.pre.i.i.i.i.i = load ptr, ptr %37, align 8
  br label %_ZN9QtPrivate8RefCount5derefEv.exit.thread2.i.i.i.i.i

_ZN9QtPrivate8RefCount5derefEv.exit.thread2.i.i.i.i.i: ; preds = %_ZN9QtPrivate8RefCount5derefEv.exit._ZN9QtPrivate8RefCount5derefEv.exit.thread2_crit_edge.i.i.i.i.i, %.lr.ph.i.i.i.i
  %41 = phi ptr [ %.pre.i.i.i.i.i, %_ZN9QtPrivate8RefCount5derefEv.exit._ZN9QtPrivate8RefCount5derefEv.exit.thread2_crit_edge.i.i.i.i.i ], [ %38, %.lr.ph.i.i.i.i ]
  tail call void @_ZN10QArrayData10deallocateEPS_mm(ptr noundef %41, i64 noundef 2, i64 noundef 8) #23
  br label %_ZN7QStringD2Ev.exit.i.i.i.i

_ZN7QStringD2Ev.exit.i.i.i.i:                     ; preds = %_ZN9QtPrivate8RefCount5derefEv.exit.thread2.i.i.i.i.i, %_ZN9QtPrivate8RefCount5derefEv.exit.i.i.i.i.i, %.lr.ph.i.i.i.i
  %.not.i.i.i.i = icmp eq ptr %37, %32
  br i1 %.not.i.i.i.i, label %_ZN5QListI7QStringE13node_destructEPNS1_4NodeES3_.exit.i.i.i, label %.lr.ph.i.i.i.i, !llvm.loop !24

_ZN5QListI7QStringE13node_destructEPNS1_4NodeES3_.exit.i.i.i: ; preds = %_ZN7QStringD2Ev.exit.i.i.i.i, %_ZN9QtPrivate8RefCount5derefEv.exit.thread2.i.i
  invoke void @_ZN9QListData7disposeEPNS_4DataE(ptr noundef %27)
          to label %_ZN11QStringListD2Ev.exit unwind label %42

42:                                               ; preds = %_ZN5QListI7QStringE13node_destructEPNS1_4NodeES3_.exit.i.i.i
  %43 = landingpad { ptr, i32 }
          catch ptr null
  %44 = extractvalue { ptr, i32 } %43, 0
  tail call void @__clang_call_terminate(ptr %44) #24
  unreachable

_ZN11QStringListD2Ev.exit:                        ; preds = %_ZN3vcg3tri2io18QtUtilityFunctionsL23fileNameFromTrimmedPathERK11QStringList.exit, %_ZN9QtPrivate8RefCount5derefEv.exit.i.i, %_ZN5QListI7QStringE13node_destructEPNS1_4NodeES3_.exit.i.i.i
  ret void

45:                                               ; preds = %2
  %46 = landingpad { ptr, i32 }
          cleanup
  call void @_ZN11QStringListD2Ev(ptr noundef nonnull align 8 dereferenceable(8) %3) #23
  resume { ptr, i32 } %46
}